target datalayout = "e-m:e-p270:32:32-p271:32:32-p272:64:64-i64:64-i128:128-f80:128-n8:16:32:64-S128"
target triple = "x86_64-pc-linux-gnu"

@stctx_ex_verify_cb_idx = internal global i32 0, align 4
@store_ex_verify_cb_idx = internal global i32 0, align 4

; Function Attrs: nounwind sspstrong uwtable
define internal i32 @x509store_verify_cb(i32 noundef %0, ptr noundef %1) #0 {
  %3 = alloca i32, align 4
  %4 = alloca i32, align 4
  %5 = alloca ptr, align 8
  %6 = alloca i64, align 8
  %7 = alloca i32, align 4
  store i32 %0, ptr %4, align 4, !tbaa !10
  store ptr %1, ptr %5, align 8, !tbaa !12
  call void @llvm.lifetime.start.p0(i64 8, ptr %6) #12
  %8 = load ptr, ptr %5, align 8, !tbaa !12
  %9 = load i32, ptr @stctx_ex_verify_cb_idx, align 4, !tbaa !10
  %10 = call ptr @X509_STORE_CTX_get_ex_data(ptr noundef %8, i32 noundef %9)
  %11 = ptrtoint ptr %10 to i64
  store i64 %11, ptr %6, align 8, !tbaa !6
  %12 = load i64, ptr %6, align 8, !tbaa !6
  %13 = icmp ne i64 %12, 0
  br i1 %13, label %20, label %14

14:                                               ; preds = %2
  %15 = load ptr, ptr %5, align 8, !tbaa !12
  %16 = call ptr @X509_STORE_CTX_get0_store(ptr noundef %15)
  %17 = load i32, ptr @store_ex_verify_cb_idx, align 4, !tbaa !10
  %18 = call ptr @X509_STORE_get_ex_data(ptr noundef %16, i32 noundef %17)
  %19 = ptrtoint ptr %18 to i64
  store i64 %19, ptr %6, align 8, !tbaa !6
  br label %20

20:                                               ; preds = %14, %2
  %21 = load i64, ptr %6, align 8, !tbaa !6
  %22 = icmp ne i64 %21, 0
  br i1 %22, label %25, label %23

23:                                               ; preds = %20
  %24 = load i32, ptr %4, align 4, !tbaa !10
  store i32 %24, ptr %3, align 4
  store i32 1, ptr %7, align 4
  br label %30

25:                                               ; preds = %20
  %26 = load i64, ptr %6, align 8, !tbaa !6
  %27 = load i32, ptr %4, align 4, !tbaa !10
  %28 = load ptr, ptr %5, align 8, !tbaa !12
  %29 = call i32 @ossl_verify_cb_call(i64 noundef %26, i32 noundef %27, ptr noundef %28)
  store i32 %29, ptr %3, align 4
  store i32 1, ptr %7, align 4
  br label %30

30:                                               ; preds = %25, %23
  call void @llvm.lifetime.end.p0(i64 8, ptr %6) #12
  %31 = load i32, ptr %3, align 4
  ret i32 %31
}