; Function Attrs: nounwind sspstrong uwtable
define internal noundef i32 @x509store_verify_cb(i32 noundef %0, ptr noundef %1) #0 {
  %3 = load i32, ptr @stctx_ex_verify_cb_idx, align 4, !tbaa !6
  %4 = tail call ptr @X509_STORE_CTX_get_ex_data(ptr noundef %1, i32 noundef %3) #5
  %.not = icmp eq ptr %4, null
  br i1 %.not, label %5, label %.thread

5:                                                ; preds = %2
  %6 = tail call ptr @X509_STORE_CTX_get0_store(ptr noundef %1) #5
  %7 = load i32, ptr @store_ex_verify_cb_idx, align 4, !tbaa !6
  %8 = tail call ptr @X509_STORE_get_ex_data(ptr noundef %6, i32 noundef %7) #5
  %.not10 = icmp eq ptr %8, null
  br i1 %.not10, label %10, label %.thread

.thread:                                          ; preds = %2, %5
  %.0.in13 = phi ptr [ %8, %5 ], [ %4, %2 ]
  %.0 = ptrtoint ptr %.0.in13 to i64
  %9 = tail call i32 @ossl_verify_cb_call(i64 noundef %.0, i32 noundef %0, ptr noundef %1)
  br label %10

10:                                               ; preds = %5, %.thread
  %.08 = phi i32 [ %9, %.thread ], [ %0, %5 ]
  ret i32 %.08
}